target datalayout = "e-m:e-p270:32:32-p271:32:32-p272:64:64-i64:64-i128:128-f80:128-n8:16:32:64-S128"
target triple = "x86_64-pc-linux-gnu"

%struct._header_field_info = type { ptr, ptr, i32, i32, ptr, i64, ptr, i32, i32, i32, i32, ptr }
%struct._proto_node = type { ptr, ptr, ptr, ptr, ptr, ptr, ptr }
%struct.field_info = type { ptr, i32, i32, i32, i32, i32, i32, ptr, ptr, ptr, i32, i32 }
%struct.ffdata_t = type { ptr, i32 }

; Function Attrs: null_pointer_is_valid sspstrong uwtable
define internal zeroext i1 @find_finfo(ptr noundef %0, ptr noundef %1) #0 {
  %3 = alloca ptr, align 8
  %4 = alloca ptr, align 8
  %5 = alloca ptr, align 8
  store ptr %0, ptr %3, align 8
  store ptr %1, ptr %4, align 8
  call void @llvm.lifetime.start.p0(i64 8, ptr %5) #24
  %6 = load ptr, ptr %3, align 8
  %7 = getelementptr inbounds nuw %struct._proto_node, ptr %6, i32 0, i32 5
  %8 = load ptr, ptr %7, align 8
  store ptr %8, ptr %5, align 8
  %9 = load ptr, ptr %5, align 8
  %10 = icmp ne ptr %9, null
  br i1 %10, label %11, label %32

11:                                               ; preds = %2
  %12 = load ptr, ptr %5, align 8
  %13 = getelementptr inbounds nuw %struct.field_info, ptr %12, i32 0, i32 0
  %14 = load ptr, ptr %13, align 8
  %15 = icmp ne ptr %14, null
  br i1 %15, label %16, label %32

16:                                               ; preds = %11
  %17 = load ptr, ptr %5, align 8
  %18 = getelementptr inbounds nuw %struct.field_info, ptr %17, i32 0, i32 0
  %19 = load ptr, ptr %18, align 8
  %20 = getelementptr inbounds nuw %struct._header_field_info, ptr %19, i32 0, i32 7
  %21 = load i32, ptr %20, align 8
  %22 = load ptr, ptr %4, align 8
  %23 = getelementptr inbounds nuw %struct.ffdata_t, ptr %22, i32 0, i32 1
  %24 = load i32, ptr %23, align 8
  %25 = icmp eq i32 %21, %24
  br i1 %25, label %26, label %31

26:                                               ; preds = %16
  %27 = load ptr, ptr %4, align 8
  %28 = getelementptr inbounds nuw %struct.ffdata_t, ptr %27, i32 0, i32 0
  %29 = load ptr, ptr %28, align 8
  %30 = load ptr, ptr %5, align 8
  call void @g_ptr_array_add(ptr noundef %29, ptr noundef %30)
  br label %31

31:                                               ; preds = %26, %16
  br label %32

32:                                               ; preds = %31, %11, %2
  call void @llvm.lifetime.end.p0(i64 8, ptr %5) #24
  ret i1 false
}